
_main:

;servo.c,1 :: 		void main() {
;servo.c,2 :: 		trisb=0x00;
	CLRF       TRISB+0
;servo.c,3 :: 		portb=0x00;
	CLRF       PORTB+0
;servo.c,4 :: 		while(1){
L_main0:
;servo.c,6 :: 		portb.f0=1;
	BSF        PORTB+0, 0
;servo.c,7 :: 		delay_us(1000);
	MOVLW      3
	MOVWF      R12+0
	MOVLW      151
	MOVWF      R13+0
L_main2:
	DECFSZ     R13+0, 1
	GOTO       L_main2
	DECFSZ     R12+0, 1
	GOTO       L_main2
	NOP
	NOP
;servo.c,8 :: 		portb.f0=0;
	BCF        PORTB+0, 0
;servo.c,9 :: 		delay_ms(20);
	MOVLW      52
	MOVWF      R12+0
	MOVLW      241
	MOVWF      R13+0
L_main3:
	DECFSZ     R13+0, 1
	GOTO       L_main3
	DECFSZ     R12+0, 1
	GOTO       L_main3
	NOP
	NOP
;servo.c,10 :: 		delay_ms(1000);
	MOVLW      11
	MOVWF      R11+0
	MOVLW      38
	MOVWF      R12+0
	MOVLW      93
	MOVWF      R13+0
L_main4:
	DECFSZ     R13+0, 1
	GOTO       L_main4
	DECFSZ     R12+0, 1
	GOTO       L_main4
	DECFSZ     R11+0, 1
	GOTO       L_main4
	NOP
	NOP
;servo.c,13 :: 		portb.f0=1;
	BSF        PORTB+0, 0
;servo.c,14 :: 		delay_us(1500);
	MOVLW      4
	MOVWF      R12+0
	MOVLW      228
	MOVWF      R13+0
L_main5:
	DECFSZ     R13+0, 1
	GOTO       L_main5
	DECFSZ     R12+0, 1
	GOTO       L_main5
	NOP
;servo.c,15 :: 		portb.f0=0;
	BCF        PORTB+0, 0
;servo.c,16 :: 		delay_ms(20);
	MOVLW      52
	MOVWF      R12+0
	MOVLW      241
	MOVWF      R13+0
L_main6:
	DECFSZ     R13+0, 1
	GOTO       L_main6
	DECFSZ     R12+0, 1
	GOTO       L_main6
	NOP
	NOP
;servo.c,17 :: 		delay_ms(1000);
	MOVLW      11
	MOVWF      R11+0
	MOVLW      38
	MOVWF      R12+0
	MOVLW      93
	MOVWF      R13+0
L_main7:
	DECFSZ     R13+0, 1
	GOTO       L_main7
	DECFSZ     R12+0, 1
	GOTO       L_main7
	DECFSZ     R11+0, 1
	GOTO       L_main7
	NOP
	NOP
;servo.c,20 :: 		portb.f0=1;
	BSF        PORTB+0, 0
;servo.c,21 :: 		delay_us(3000);
	MOVLW      8
	MOVWF      R12+0
	MOVLW      201
	MOVWF      R13+0
L_main8:
	DECFSZ     R13+0, 1
	GOTO       L_main8
	DECFSZ     R12+0, 1
	GOTO       L_main8
	NOP
	NOP
;servo.c,22 :: 		portb.f0=0;
	BCF        PORTB+0, 0
;servo.c,23 :: 		delay_ms(20);
	MOVLW      52
	MOVWF      R12+0
	MOVLW      241
	MOVWF      R13+0
L_main9:
	DECFSZ     R13+0, 1
	GOTO       L_main9
	DECFSZ     R12+0, 1
	GOTO       L_main9
	NOP
	NOP
;servo.c,24 :: 		delay_ms(1000);
	MOVLW      11
	MOVWF      R11+0
	MOVLW      38
	MOVWF      R12+0
	MOVLW      93
	MOVWF      R13+0
L_main10:
	DECFSZ     R13+0, 1
	GOTO       L_main10
	DECFSZ     R12+0, 1
	GOTO       L_main10
	DECFSZ     R11+0, 1
	GOTO       L_main10
	NOP
	NOP
;servo.c,29 :: 		}
	GOTO       L_main0
;servo.c,30 :: 		}
L_end_main:
	GOTO       $+0
; end of _main
